; Function Attrs: mustprogress uwtable
define hidden void @_ZNK19OpenColorIO_v2_5dev29ExposureContrastTransformImpl18createEditableCopyEv(ptr dead_on_unwind noalias writable sret(%"class.std::shared_ptr.11") align 8 initializes((0, 16)) %0, ptr noundef nonnull align 8 dereferenceable(256) %1) unnamed_addr #0 align 2 personality ptr @__gxx_personality_v0 {
_ZNSt12__shared_ptrIN19OpenColorIO_v2_5dev25ExposureContrastTransformELN9__gnu_cxx12_Lock_policyE2EED2Ev.exit:
  %2 = alloca %"class.std::shared_ptr", align 8
  call void @llvm.lifetime.start.p0(i64 16, ptr nonnull %2) #20
  call void @_ZN19OpenColorIO_v2_5dev25ExposureContrastTransform6CreateEv(ptr dead_on_unwind nonnull writable sret(%"class.std::shared_ptr") align 8 %2)
  %3 = load ptr, ptr %2, align 8, !tbaa !6
  store ptr %3, ptr %0, align 8, !tbaa !23
  %4 = getelementptr inbounds nuw i8, ptr %0, i64 8
  %5 = getelementptr inbounds nuw i8, ptr %2, i64 8
  %6 = load ptr, ptr %5, align 8, !tbaa !13
  store ptr %6, ptr %4, align 8, !tbaa !13
  call void @llvm.lifetime.end.p0(i64 16, ptr nonnull %2) #20
  %7 = getelementptr inbounds nuw i8, ptr %1, i64 8
  %8 = tail call ptr @__dynamic_cast(ptr nonnull %3, ptr nonnull @_ZTIN19OpenColorIO_v2_5dev9TransformE, ptr nonnull @_ZTIN19OpenColorIO_v2_5dev29ExposureContrastTransformImplE, i64 0) #20
  %9 = getelementptr inbounds nuw i8, ptr %8, i64 8
  %10 = invoke noundef nonnull align 8 dereferenceable(248) ptr @_ZN19OpenColorIO_v2_5dev22ExposureContrastOpDataaSERKS0_(ptr noundef nonnull align 8 dereferenceable(248) %9, ptr noundef nonnull align 8 dereferenceable(248) %7)
          to label %13 unwind label %11

11:                                               ; preds = %_ZNSt12__shared_ptrIN19OpenColorIO_v2_5dev25ExposureContrastTransformELN9__gnu_cxx12_Lock_policyE2EED2Ev.exit
  %12 = landingpad { ptr, i32 }
          cleanup
  tail call void @_ZNSt12__shared_ptrIN19OpenColorIO_v2_5dev9TransformELN9__gnu_cxx12_Lock_policyE2EED2Ev(ptr noundef nonnull align 8 dereferenceable(16) %0) #20
  resume { ptr, i32 } %12

13:                                               ; preds = %_ZNSt12__shared_ptrIN19OpenColorIO_v2_5dev25ExposureContrastTransformELN9__gnu_cxx12_Lock_policyE2EED2Ev.exit
  ret void
}